; Function Attrs: nounwind uwtable
define ptr @l_Array_mapFinIdxM_map___at_Lean_Compiler_LCNF_ToLCNF_toLCNF_visitCasesImplementedBy___spec__6___lambda__1(ptr noundef %0, ptr noundef %1, ptr noundef %2, ptr noundef %3, ptr noundef %4, ptr noundef %5, ptr noundef %6, ptr noundef %7, ptr noundef %8) local_unnamed_addr #1 {
  %10 = tail call ptr @l_Lean_Expr_getAppFn(ptr noundef %3) #5
  %11 = tail call ptr @l___private_Lean_Expr_0__Lean_Expr_getAppNumArgsAux(ptr noundef %3, ptr noundef nonnull inttoptr (i64 1 to ptr)) #5
  %12 = load ptr, ptr @l_Lean_Compiler_LCNF_ToLCNF_toLCNF_visitApp___closed__1, align 8, !tbaa !9
  %13 = ptrtoint ptr %11 to i64
  %14 = and i64 %13, 1
  %.not = icmp eq i64 %14, 0
  br i1 %.not, label %15, label %21

15:                                               ; preds = %9
  %.val.i = load i32, ptr %11, align 4, !tbaa !4
  %16 = icmp sgt i32 %.val.i, 0
  br i1 %16, label %17, label %19, !prof !11

17:                                               ; preds = %15
  %18 = add nuw i32 %.val.i, 1
  store i32 %18, ptr %11, align 4, !tbaa !4
  br label %27

19:                                               ; preds = %15
  %.not.i37 = icmp eq i32 %.val.i, 0
  br i1 %.not.i37, label %27, label %20

20:                                               ; preds = %19
  tail call void @lean_inc_ref_cold(ptr noundef nonnull %11) #5
  br label %27

21:                                               ; preds = %9
  %22 = tail call ptr @lean_mk_array(ptr noundef %11, ptr noundef %12) #5
  %23 = icmp ult ptr %11, inttoptr (i64 2 to ptr)
  br i1 %23, label %lean_dec.exit34, label %24

24:                                               ; preds = %21
  %25 = add i64 %13, -2
  %26 = inttoptr i64 %25 to ptr
  br label %lean_dec.exit34

27:                                               ; preds = %20, %19, %17
  %28 = tail call ptr @lean_mk_array(ptr noundef nonnull %11, ptr noundef %12) #5
  %29 = tail call ptr @lean_nat_big_sub(ptr noundef nonnull %11, ptr noundef nonnull inttoptr (i64 3 to ptr)) #5
  %30 = load i32, ptr %11, align 4, !tbaa !4
  %31 = icmp sgt i32 %30, 1
  br i1 %31, label %32, label %34, !prof !11

32:                                               ; preds = %27
  %33 = add nsw i32 %30, -1
  store i32 %33, ptr %11, align 4, !tbaa !4
  br label %lean_dec.exit34

34:                                               ; preds = %27
  %.not.i = icmp eq i32 %30, 0
  br i1 %.not.i, label %lean_dec.exit34, label %35

35:                                               ; preds = %34
  tail call void @lean_dec_ref_cold(ptr noundef nonnull %11) #5
  br label %lean_dec.exit34

lean_dec.exit34:                                  ; preds = %24, %21, %35, %34, %32
  %.1.i39 = phi ptr [ %29, %32 ], [ %29, %34 ], [ %29, %35 ], [ inttoptr (i64 1 to ptr), %21 ], [ %26, %24 ]
  %36 = phi ptr [ %28, %32 ], [ %28, %34 ], [ %28, %35 ], [ %22, %21 ], [ %22, %24 ]
  %37 = tail call ptr @l___private_Lean_Expr_0__Lean_Expr_getAppArgsAux(ptr noundef %3, ptr noundef %36, ptr noundef %.1.i39) #5
  %38 = getelementptr i8, ptr %37, i64 8
  %.val = load i64, ptr %38, align 8, !tbaa !12
  %39 = tail call ptr @l_Array_mapMUnsafe_map___at_Lean_Compiler_LCNF_ToLCNF_toLCNF_visitCasesImplementedBy___spec__4(ptr noundef %0, ptr noundef %1, ptr noundef %2, ptr noundef %12, i64 noundef %.val, i64 noundef 0, ptr noundef %37)
  %40 = tail call ptr @l_Lean_mkAppN(ptr noundef %10, ptr noundef %39) #5
  %41 = ptrtoint ptr %39 to i64
  %42 = and i64 %41, 1
  %.not40 = icmp eq i64 %42, 0
  br i1 %.not40, label %43, label %lean_dec.exit

43:                                               ; preds = %lean_dec.exit34
  %44 = load i32, ptr %39, align 4, !tbaa !4
  %45 = icmp sgt i32 %44, 1
  br i1 %45, label %46, label %48, !prof !11

46:                                               ; preds = %43
  %47 = add nsw i32 %44, -1
  store i32 %47, ptr %39, align 4, !tbaa !4
  br label %lean_dec.exit

48:                                               ; preds = %43
  %.not.i35 = icmp eq i32 %44, 0
  br i1 %.not.i35, label %lean_dec.exit, label %49

49:                                               ; preds = %48
  tail call void @lean_dec_ref_cold(ptr noundef nonnull %39) #5
  br label %lean_dec.exit

lean_dec.exit:                                    ; preds = %49, %48, %46, %lean_dec.exit34
  %50 = tail call ptr @l_Lean_Meta_mkLambdaFVars(ptr noundef %2, ptr noundef %40, i8 noundef zeroext 0, i8 noundef zeroext 1, i8 noundef zeroext 0, i8 noundef zeroext 1, ptr noundef %4, ptr noundef %5, ptr noundef %6, ptr noundef %7, ptr noundef %8) #5
  ret ptr %50
}